target datalayout = "e-m:e-p270:32:32-p271:32:32-p272:64:64-i64:64-i128:128-f80:128-n8:16:32:64-S128"
target triple = "x86_64-pc-linux-gnu"

%"class.icu_77::RuleBasedCollator" = type <{ %"class.icu_77::Collator", ptr, ptr, ptr, ptr, %"class.icu_77::Locale", i32, i8, [3 x i8] }>
%"class.icu_77::Collator" = type { %"class.icu_77::UObject" }
%"class.icu_77::UObject" = type { ptr }
%"class.icu_77::Locale" = type <{ %"class.icu_77::UObject", [12 x i8], [6 x i8], [4 x i8], [2 x i8], i32, [4 x i8], ptr, [157 x i8], [3 x i8], ptr, i8, [7 x i8] }>
%"struct.icu_77::CollationTailoring" = type { %"class.icu_77::SharedObject", ptr, ptr, %"class.icu_77::UnicodeString", %"class.icu_77::Locale", [4 x i8], ptr, ptr, ptr, ptr, ptr, ptr, ptr, %"struct.icu_77::UInitOnce" }
%"class.icu_77::SharedObject" = type { %"class.icu_77::UObject", i32, %"struct.std::atomic", ptr }
%"struct.std::atomic" = type { %"struct.std::__atomic_base" }
%"struct.std::__atomic_base" = type { i32 }
%"class.icu_77::UnicodeString" = type { %"class.icu_77::Replaceable", %"union.icu_77::UnicodeString::StackBufferOrFields" }
%"class.icu_77::Replaceable" = type { %"class.icu_77::UObject" }
%"union.icu_77::UnicodeString::StackBufferOrFields" = type { %struct.anon.0, [32 x i8] }
%struct.anon.0 = type { i16, i32, i32, ptr }
%"struct.icu_77::UInitOnce" = type { %"struct.std::atomic", i32 }

; Function Attrs: mustprogress uwtable
define noundef i32 @_ZN6icu_7719CollationDataWriter14writeTailoringERKNS_18CollationTailoringERKNS_17CollationSettingsEPiPhiR10UErrorCode(ptr noundef nonnull align 8 dereferenceable(400) %0, ptr noundef nonnull align 8 dereferenceable(852) %1, ptr noundef %2, ptr noundef %3, i32 noundef %4, ptr noundef nonnull align 4 dereferenceable(4) %5) #0 align 2 {
  %7 = alloca ptr, align 8
  %8 = alloca ptr, align 8
  %9 = alloca ptr, align 8
  %10 = alloca ptr, align 8
  %11 = alloca i32, align 4
  %12 = alloca ptr, align 8
  store ptr %0, ptr %7, align 8, !tbaa !33
  store ptr %1, ptr %8, align 8, !tbaa !34
  store ptr %2, ptr %9, align 8, !tbaa !8
  store ptr %3, ptr %10, align 8, !tbaa !17
  store i32 %4, ptr %11, align 4, !tbaa !13
  store ptr %5, ptr %12, align 8, !tbaa !10
  %13 = load ptr, ptr %7, align 8, !tbaa !33
  %14 = getelementptr inbounds nuw %"struct.icu_77::CollationTailoring", ptr %13, i32 0, i32 5
  %15 = getelementptr inbounds [4 x i8], ptr %14, i64 0, i64 0
  %16 = load ptr, ptr %7, align 8, !tbaa !33
  %17 = getelementptr inbounds nuw %"struct.icu_77::CollationTailoring", ptr %16, i32 0, i32 1
  %18 = load ptr, ptr %17, align 8, !tbaa !35
  %19 = load ptr, ptr %8, align 8, !tbaa !34
  %20 = load ptr, ptr %9, align 8, !tbaa !8
  %21 = load ptr, ptr %10, align 8, !tbaa !17
  %22 = load i32, ptr %11, align 4, !tbaa !13
  %23 = load ptr, ptr %12, align 8, !tbaa !10
  %24 = call noundef i32 @_ZN6icu_7719CollationDataWriter5writeEaPKhRKNS_13CollationDataERKNS_17CollationSettingsEPKviPiPhiR10UErrorCode(i8 noundef signext 0, ptr noundef %15, ptr noundef nonnull align 8 dereferenceable(140) %18, ptr noundef nonnull align 8 dereferenceable(852) %19, ptr noundef null, i32 noundef 0, ptr noundef %20, ptr noundef %21, i32 noundef %22, ptr noundef nonnull align 4 dereferenceable(4) %23)
  ret i32 %24
}

; Function Attrs: mustprogress uwtable
define noundef i32 @_ZNK6icu_7717RuleBasedCollator11cloneBinaryEPhiR10UErrorCode(ptr noundef nonnull align 8 dereferenceable(272) %0, ptr noundef %1, i32 noundef %2, ptr noundef nonnull align 4 dereferenceable(4) %3) #0 align 2 {
  %5 = alloca ptr, align 8
  %6 = alloca ptr, align 8
  %7 = alloca i32, align 4
  %8 = alloca ptr, align 8
  %9 = alloca [20 x i32], align 16
  store ptr %0, ptr %5, align 8, !tbaa !3
  store ptr %1, ptr %6, align 8, !tbaa !17
  store i32 %2, ptr %7, align 4, !tbaa !13
  store ptr %3, ptr %8, align 8, !tbaa !10
  %10 = load ptr, ptr %5, align 8
  call void @llvm.lifetime.start.p0(i64 80, ptr %9) #11
  %11 = getelementptr inbounds nuw %"class.icu_77::RuleBasedCollator", ptr %10, i32 0, i32 3
  %12 = load ptr, ptr %11, align 8, !tbaa !23
  %13 = getelementptr inbounds nuw %"class.icu_77::RuleBasedCollator", ptr %10, i32 0, i32 2
  %14 = load ptr, ptr %13, align 8, !tbaa !32
  %15 = getelementptr inbounds [20 x i32], ptr %9, i64 0, i64 0
  %16 = load ptr, ptr %6, align 8, !tbaa !17
  %17 = load i32, ptr %7, align 4, !tbaa !13
  %18 = load ptr, ptr %8, align 8, !tbaa !10
  %19 = call noundef i32 @_ZN6icu_7719CollationDataWriter14writeTailoringERKNS_18CollationTailoringERKNS_17CollationSettingsEPiPhiR10UErrorCode(ptr noundef nonnull align 8 dereferenceable(400) %12, ptr noundef nonnull align 8 dereferenceable(852) %14, ptr noundef %15, ptr noundef %16, i32 noundef %17, ptr noundef nonnull align 4 dereferenceable(4) %18)
  call void @llvm.lifetime.end.p0(i64 80, ptr %9) #11
  ret i32 %19
}