; Function Attrs: mustprogress uwtable
define noundef i32 @_ZNK6icu_7717RuleBasedCollator11cloneBinaryEPhiR10UErrorCode(ptr noundef nonnull readonly align 8 captures(none) dereferenceable(272) %0, ptr noundef %1, i32 noundef %2, ptr noundef nonnull align 4 dereferenceable(4) %3) local_unnamed_addr #0 align 2 {
  %5 = alloca [20 x i32], align 16
  call void @llvm.lifetime.start.p0(i64 80, ptr nonnull %5) #12
  %6 = getelementptr inbounds nuw i8, ptr %0, i64 24
  %7 = load ptr, ptr %6, align 8, !tbaa !7
  %8 = getelementptr inbounds nuw i8, ptr %0, i64 16
  %9 = load ptr, ptr %8, align 8, !tbaa !19
  %10 = getelementptr inbounds nuw i8, ptr %7, i64 328
  %11 = getelementptr inbounds nuw i8, ptr %7, i64 24
  %12 = load ptr, ptr %11, align 8, !tbaa !20
  %13 = call noundef i32 @_ZN6icu_7719CollationDataWriter5writeEaPKhRKNS_13CollationDataERKNS_17CollationSettingsEPKviPiPhiR10UErrorCode(i8 noundef signext 0, ptr noundef nonnull readonly %10, ptr noundef nonnull align 8 dereferenceable(140) %12, ptr noundef nonnull readonly align 8 dereferenceable(852) %9, ptr noundef null, i32 noundef 0, ptr noundef nonnull %5, ptr noundef %1, i32 noundef %2, ptr noundef nonnull align 4 dereferenceable(4) %3)
  call void @llvm.lifetime.end.p0(i64 80, ptr nonnull %5) #12
  ret i32 %13
}